target datalayout = "e-m:e-p270:32:32-p271:32:32-p272:64:64-i64:64-i128:128-f80:128-n8:16:32:64-S128"
target triple = "x86_64-pc-linux-gnu"

@.str.20 = private unnamed_addr constant [44 x i8] c"../openssl/test/x509_check_cert_pkey_test.c\00", align 1
@c = internal global ptr null, align 8
@k = internal global ptr null, align 8
@t = internal global ptr null, align 8
@e = internal global ptr null, align 8
@.str.34 = private unnamed_addr constant [2 x i8] c"r\00", align 1
@.str.37 = private unnamed_addr constant [9 x i8] c"expected\00", align 1
@.str.38 = private unnamed_addr constant [5 x i8] c"cert\00", align 1
@.str.39 = private unnamed_addr constant [4 x i8] c"req\00", align 1
@.str.40 = private unnamed_addr constant [15 x i8] c"invalid 'type'\00", align 1
@.str.41 = private unnamed_addr constant [3 x i8] c"ok\00", align 1
@.str.42 = private unnamed_addr constant [7 x i8] c"failed\00", align 1
@.str.43 = private unnamed_addr constant [19 x i8] c"invalid 'expected'\00", align 1
@.str.44 = private unnamed_addr constant [27 x i8] c"bio = BIO_new_file(k, \22r\22)\00", align 1
@.str.45 = private unnamed_addr constant [54 x i8] c"pkey = PEM_read_bio_PrivateKey(bio, NULL, NULL, NULL)\00", align 1
@.str.46 = private unnamed_addr constant [27 x i8] c"bio = BIO_new_file(c, \22r\22)\00", align 1
@.str.47 = private unnamed_addr constant [21 x i8] c"read PEM x509 failed\00", align 1
@.str.48 = private unnamed_addr constant [25 x i8] c"read PEM x509 req failed\00", align 1
@.str.49 = private unnamed_addr constant [7 x i8] c"result\00", align 1
@.str.50 = private unnamed_addr constant [41 x i8] c"check private key: expected: %d, got: %d\00", align 1

; Function Attrs: nounwind uwtable
define internal i32 @test_x509_check_cert_pkey() #0 {
  %1 = alloca ptr, align 8
  %2 = alloca ptr, align 8
  %3 = alloca ptr, align 8
  %4 = alloca ptr, align 8
  %5 = alloca i32, align 4
  %6 = alloca i32, align 4
  %7 = alloca i32, align 4
  %8 = alloca i32, align 4
  call void @llvm.lifetime.start.p0(i64 8, ptr %1) #6
  store ptr null, ptr %1, align 8, !tbaa !11
  call void @llvm.lifetime.start.p0(i64 8, ptr %2) #6
  store ptr null, ptr %2, align 8, !tbaa !28
  call void @llvm.lifetime.start.p0(i64 8, ptr %3) #6
  store ptr null, ptr %3, align 8, !tbaa !29
  call void @llvm.lifetime.start.p0(i64 8, ptr %4) #6
  store ptr null, ptr %4, align 8, !tbaa !31
  call void @llvm.lifetime.start.p0(i64 4, ptr %5) #6
  store i32 0, ptr %5, align 4, !tbaa !9
  call void @llvm.lifetime.start.p0(i64 4, ptr %6) #6
  store i32 0, ptr %6, align 4, !tbaa !9
  call void @llvm.lifetime.start.p0(i64 4, ptr %7) #6
  store i32 0, ptr %7, align 4, !tbaa !9
  call void @llvm.lifetime.start.p0(i64 4, ptr %8) #6
  store i32 0, ptr %8, align 4, !tbaa !9
  %9 = load ptr, ptr @t, align 8, !tbaa !4
  %10 = call i32 @strcmp(ptr noundef %9, ptr noundef @.str.38) #7
  %11 = icmp eq i32 %10, 0
  br i1 %11, label %12, label %13

12:                                               ; preds = %0
  store i32 1, ptr %6, align 4, !tbaa !9
  br label %20

13:                                               ; preds = %0
  %14 = load ptr, ptr @t, align 8, !tbaa !4
  %15 = call i32 @strcmp(ptr noundef %14, ptr noundef @.str.39) #7
  %16 = icmp eq i32 %15, 0
  br i1 %16, label %17, label %18

17:                                               ; preds = %13
  store i32 2, ptr %6, align 4, !tbaa !9
  br label %19

18:                                               ; preds = %13
  call void (ptr, i32, ptr, ...) @test_error(ptr noundef @.str.20, i32 noundef 45, ptr noundef @.str.40)
  br label %84

19:                                               ; preds = %17
  br label %20

20:                                               ; preds = %19, %12
  %21 = load ptr, ptr @e, align 8, !tbaa !4
  %22 = call i32 @strcmp(ptr noundef %21, ptr noundef @.str.41) #7
  %23 = icmp eq i32 %22, 0
  br i1 %23, label %24, label %25

24:                                               ; preds = %20
  store i32 1, ptr %7, align 4, !tbaa !9
  br label %32

25:                                               ; preds = %20
  %26 = load ptr, ptr @e, align 8, !tbaa !4
  %27 = call i32 @strcmp(ptr noundef %26, ptr noundef @.str.42) #7
  %28 = icmp eq i32 %27, 0
  br i1 %28, label %29, label %30

29:                                               ; preds = %25
  store i32 0, ptr %7, align 4, !tbaa !9
  br label %31

30:                                               ; preds = %25
  call void (ptr, i32, ptr, ...) @test_error(ptr noundef @.str.20, i32 noundef 54, ptr noundef @.str.43)
  br label %84

31:                                               ; preds = %29
  br label %32

32:                                               ; preds = %31, %24
  %33 = load ptr, ptr @k, align 8, !tbaa !4
  %34 = call ptr @BIO_new_file(ptr noundef %33, ptr noundef @.str.34)
  store ptr %34, ptr %1, align 8, !tbaa !11
  %35 = call i32 @test_ptr(ptr noundef @.str.20, i32 noundef 59, ptr noundef @.str.44, ptr noundef %34)
  %36 = icmp ne i32 %35, 0
  br i1 %36, label %38, label %37

37:                                               ; preds = %32
  br label %84

38:                                               ; preds = %32
  %39 = load ptr, ptr %1, align 8, !tbaa !11
  %40 = call ptr @PEM_read_bio_PrivateKey(ptr noundef %39, ptr noundef null, ptr noundef null, ptr noundef null)
  store ptr %40, ptr %4, align 8, !tbaa !31
  %41 = call i32 @test_ptr(ptr noundef @.str.20, i32 noundef 62, ptr noundef @.str.45, ptr noundef %40)
  %42 = icmp ne i32 %41, 0
  br i1 %42, label %44, label %43

43:                                               ; preds = %38
  br label %84

44:                                               ; preds = %38
  %45 = load ptr, ptr %1, align 8, !tbaa !11
  %46 = call i32 @BIO_free(ptr noundef %45)
  %47 = load ptr, ptr @c, align 8, !tbaa !4
  %48 = call ptr @BIO_new_file(ptr noundef %47, ptr noundef @.str.34)
  store ptr %48, ptr %1, align 8, !tbaa !11
  %49 = call i32 @test_ptr(ptr noundef @.str.20, i32 noundef 68, ptr noundef @.str.46, ptr noundef %48)
  %50 = icmp ne i32 %49, 0
  br i1 %50, label %52, label %51

51:                                               ; preds = %44
  br label %84

52:                                               ; preds = %44
  %53 = load i32, ptr %6, align 4, !tbaa !9
  switch i32 %53, label %74 [
    i32 1, label %54
    i32 2, label %64
  ]

54:                                               ; preds = %52
  %55 = load ptr, ptr %1, align 8, !tbaa !11
  %56 = call ptr @PEM_read_bio_X509(ptr noundef %55, ptr noundef null, ptr noundef null, ptr noundef null)
  store ptr %56, ptr %2, align 8, !tbaa !28
  %57 = load ptr, ptr %2, align 8, !tbaa !28
  %58 = icmp eq ptr %57, null
  br i1 %58, label %59, label %60

59:                                               ; preds = %54
  call void (ptr, i32, ptr, ...) @test_error(ptr noundef @.str.20, i32 noundef 75, ptr noundef @.str.47)
  br label %84

60:                                               ; preds = %54
  %61 = load ptr, ptr %2, align 8, !tbaa !28
  %62 = load ptr, ptr %4, align 8, !tbaa !31
  %63 = call i32 @X509_check_private_key(ptr noundef %61, ptr noundef %62)
  store i32 %63, ptr %8, align 4, !tbaa !9
  br label %75

64:                                               ; preds = %52
  %65 = load ptr, ptr %1, align 8, !tbaa !11
  %66 = call ptr @PEM_read_bio_X509_REQ(ptr noundef %65, ptr noundef null, ptr noundef null, ptr noundef null)
  store ptr %66, ptr %3, align 8, !tbaa !29
  %67 = load ptr, ptr %3, align 8, !tbaa !29
  %68 = icmp eq ptr %67, null
  br i1 %68, label %69, label %70

69:                                               ; preds = %64
  call void (ptr, i32, ptr, ...) @test_error(ptr noundef @.str.20, i32 noundef 84, ptr noundef @.str.48)
  br label %84

70:                                               ; preds = %64
  %71 = load ptr, ptr %3, align 8, !tbaa !29
  %72 = load ptr, ptr %4, align 8, !tbaa !31
  %73 = call i32 @X509_REQ_check_private_key(ptr noundef %71, ptr noundef %72)
  store i32 %73, ptr %8, align 4, !tbaa !9
  br label %75

74:                                               ; preds = %52
  br label %75

75:                                               ; preds = %74, %70, %60
  %76 = load i32, ptr %8, align 4, !tbaa !9
  %77 = load i32, ptr %7, align 4, !tbaa !9
  %78 = call i32 @test_int_eq(ptr noundef @.str.20, i32 noundef 95, ptr noundef @.str.49, ptr noundef @.str.37, i32 noundef %76, i32 noundef %77)
  %79 = icmp ne i32 %78, 0
  br i1 %79, label %83, label %80

80:                                               ; preds = %75
  %81 = load i32, ptr %7, align 4, !tbaa !9
  %82 = load i32, ptr %8, align 4, !tbaa !9
  call void (ptr, i32, ptr, ...) @test_error(ptr noundef @.str.20, i32 noundef 96, ptr noundef @.str.50, i32 noundef %81, i32 noundef %82)
  br label %84

83:                                               ; preds = %75
  store i32 1, ptr %5, align 4, !tbaa !9
  br label %84

84:                                               ; preds = %83, %80, %69, %59, %51, %43, %37, %30, %18
  %85 = load ptr, ptr %1, align 8, !tbaa !11
  %86 = call i32 @BIO_free(ptr noundef %85)
  %87 = load ptr, ptr %2, align 8, !tbaa !28
  call void @X509_free(ptr noundef %87)
  %88 = load ptr, ptr %3, align 8, !tbaa !29
  call void @X509_REQ_free(ptr noundef %88)
  %89 = load ptr, ptr %4, align 8, !tbaa !31
  call void @EVP_PKEY_free(ptr noundef %89)
  %90 = load i32, ptr %5, align 4, !tbaa !9
  call void @llvm.lifetime.end.p0(i64 4, ptr %8) #6
  call void @llvm.lifetime.end.p0(i64 4, ptr %7) #6
  call void @llvm.lifetime.end.p0(i64 4, ptr %6) #6
  call void @llvm.lifetime.end.p0(i64 4, ptr %5) #6
  call void @llvm.lifetime.end.p0(i64 8, ptr %4) #6
  call void @llvm.lifetime.end.p0(i64 8, ptr %3) #6
  call void @llvm.lifetime.end.p0(i64 8, ptr %2) #6
  call void @llvm.lifetime.end.p0(i64 8, ptr %1) #6
  ret i32 %90
}