; Function Attrs: nounwind uwtable
define internal range(i32 0, 2) i32 @test_x509_check_cert_pkey() #1 {
  %1 = load ptr, ptr @t, align 8, !tbaa !4
  %2 = tail call i32 @strcmp(ptr noundef nonnull dereferenceable(1) %1, ptr noundef nonnull dereferenceable(5) @.str.38) #6
  %3 = icmp eq i32 %2, 0
  br i1 %3, label %sub_0, label %4

4:                                                ; preds = %0
  %5 = tail call i32 @strcmp(ptr noundef nonnull dereferenceable(1) %1, ptr noundef nonnull dereferenceable(4) @.str.39) #6
  %6 = icmp eq i32 %5, 0
  br i1 %6, label %sub_0, label %7

7:                                                ; preds = %4
  tail call void (ptr, i32, ptr, ...) @test_error(ptr noundef nonnull @.str.20, i32 noundef 45, ptr noundef nonnull @.str.40) #5
  br label %46

sub_0:                                            ; preds = %4, %0
  %8 = load ptr, ptr @e, align 8, !tbaa !4
  %9 = load i8, ptr %8, align 1
  %.not34 = icmp eq i8 %9, 111
  br i1 %.not34, label %sub_1, label %.tail.thread

sub_1:                                            ; preds = %sub_0
  %10 = getelementptr inbounds nuw i8, ptr %8, i64 1
  %11 = load i8, ptr %10, align 1
  %.not35 = icmp eq i8 %11, 107
  br i1 %.not35, label %.tail, label %.tail.thread

.tail:                                            ; preds = %sub_1
  %12 = getelementptr inbounds nuw i8, ptr %8, i64 2
  %13 = load i8, ptr %12, align 1
  %14 = icmp eq i8 %13, 0
  br i1 %14, label %18, label %.tail.thread

.tail.thread:                                     ; preds = %sub_1, %sub_0, %.tail
  %15 = tail call i32 @strcmp(ptr noundef nonnull dereferenceable(1) %8, ptr noundef nonnull dereferenceable(7) @.str.42) #6
  %16 = icmp eq i32 %15, 0
  br i1 %16, label %18, label %17

17:                                               ; preds = %.tail.thread
  tail call void (ptr, i32, ptr, ...) @test_error(ptr noundef nonnull @.str.20, i32 noundef 54, ptr noundef nonnull @.str.43) #5
  br label %46

18:                                               ; preds = %.tail.thread, %.tail
  %.019 = phi i32 [ 1, %.tail ], [ 0, %.tail.thread ]
  %19 = load ptr, ptr @k, align 8, !tbaa !4
  %20 = tail call ptr @BIO_new_file(ptr noundef %19, ptr noundef nonnull @.str.34) #5
  %21 = tail call i32 @test_ptr(ptr noundef nonnull @.str.20, i32 noundef 59, ptr noundef nonnull @.str.44, ptr noundef %20) #5
  %.not = icmp eq i32 %21, 0
  br i1 %.not, label %46, label %22

22:                                               ; preds = %18
  %23 = tail call ptr @PEM_read_bio_PrivateKey(ptr noundef %20, ptr noundef null, ptr noundef null, ptr noundef null) #5
  %24 = tail call i32 @test_ptr(ptr noundef nonnull @.str.20, i32 noundef 62, ptr noundef nonnull @.str.45, ptr noundef %23) #5
  %.not31 = icmp eq i32 %24, 0
  br i1 %.not31, label %46, label %25

25:                                               ; preds = %22
  %26 = tail call i32 @BIO_free(ptr noundef %20) #5
  %27 = load ptr, ptr @c, align 8, !tbaa !4
  %28 = tail call ptr @BIO_new_file(ptr noundef %27, ptr noundef nonnull @.str.34) #5
  %29 = tail call i32 @test_ptr(ptr noundef nonnull @.str.20, i32 noundef 68, ptr noundef nonnull @.str.46, ptr noundef %28) #5
  %.not32 = icmp eq i32 %29, 0
  br i1 %.not32, label %46, label %30

30:                                               ; preds = %25
  br i1 %3, label %31, label %37

31:                                               ; preds = %30
  %32 = tail call ptr @PEM_read_bio_X509(ptr noundef %28, ptr noundef null, ptr noundef null, ptr noundef null) #5
  %33 = icmp eq ptr %32, null
  br i1 %33, label %34, label %35

34:                                               ; preds = %31
  tail call void (ptr, i32, ptr, ...) @test_error(ptr noundef nonnull @.str.20, i32 noundef 75, ptr noundef nonnull @.str.47) #5
  br label %46

35:                                               ; preds = %31
  %36 = tail call i32 @X509_check_private_key(ptr noundef nonnull %32, ptr noundef %23) #5
  br label %43

37:                                               ; preds = %30
  %38 = tail call ptr @PEM_read_bio_X509_REQ(ptr noundef %28, ptr noundef null, ptr noundef null, ptr noundef null) #5
  %39 = icmp eq ptr %38, null
  br i1 %39, label %40, label %41

40:                                               ; preds = %37
  tail call void (ptr, i32, ptr, ...) @test_error(ptr noundef nonnull @.str.20, i32 noundef 84, ptr noundef nonnull @.str.48) #5
  br label %46

41:                                               ; preds = %37
  %42 = tail call i32 @X509_REQ_check_private_key(ptr noundef nonnull %38, ptr noundef %23) #5
  br label %43

43:                                               ; preds = %41, %35
  %.125 = phi ptr [ null, %41 ], [ %32, %35 ]
  %.1 = phi ptr [ %38, %41 ], [ null, %35 ]
  %.0 = phi i32 [ %42, %41 ], [ %36, %35 ]
  %44 = tail call i32 @test_int_eq(ptr noundef nonnull @.str.20, i32 noundef 95, ptr noundef nonnull @.str.49, ptr noundef nonnull @.str.37, i32 noundef %.0, i32 noundef %.019) #5
  %.not33 = icmp eq i32 %44, 0
  br i1 %.not33, label %45, label %46

45:                                               ; preds = %43
  tail call void (ptr, i32, ptr, ...) @test_error(ptr noundef nonnull @.str.20, i32 noundef 96, ptr noundef nonnull @.str.50, i32 noundef %.019, i32 noundef %.0) #5
  br label %46

46:                                               ; preds = %43, %25, %22, %18, %45, %40, %34, %17, %7
  %.026 = phi ptr [ %28, %45 ], [ %28, %40 ], [ %28, %34 ], [ %28, %25 ], [ %20, %22 ], [ %20, %18 ], [ null, %17 ], [ null, %7 ], [ %28, %43 ]
  %.024 = phi ptr [ %.125, %45 ], [ null, %40 ], [ null, %34 ], [ null, %25 ], [ null, %22 ], [ null, %18 ], [ null, %17 ], [ null, %7 ], [ %.125, %43 ]
  %.023 = phi ptr [ %.1, %45 ], [ null, %40 ], [ null, %34 ], [ null, %25 ], [ null, %22 ], [ null, %18 ], [ null, %17 ], [ null, %7 ], [ %.1, %43 ]
  %.022 = phi ptr [ %23, %45 ], [ %23, %40 ], [ %23, %34 ], [ %23, %25 ], [ %23, %22 ], [ null, %18 ], [ null, %17 ], [ null, %7 ], [ %23, %43 ]
  %.021 = phi i32 [ 0, %45 ], [ 0, %40 ], [ 0, %34 ], [ 0, %25 ], [ 0, %22 ], [ 0, %18 ], [ 0, %17 ], [ 0, %7 ], [ 1, %43 ]
  %47 = tail call i32 @BIO_free(ptr noundef %.026) #5
  tail call void @X509_free(ptr noundef %.024) #5
  tail call void @X509_REQ_free(ptr noundef %.023) #5
  tail call void @EVP_PKEY_free(ptr noundef %.022) #5
  ret i32 %.021
}